; Function Attrs: mustprogress uwtable
define hidden noundef x86_fp80 @_ZN2cv4text7Minibox6volumeEv(ptr noundef nonnull readonly align 8 captures(none) dereferenceable(49) %0) local_unnamed_addr #3 align 2 {
  %2 = getelementptr inbounds nuw i8, ptr %0, i64 8
  %3 = load ptr, ptr %2, align 8, !tbaa !343
  %4 = load ptr, ptr %0, align 8, !tbaa !344
  %5 = ptrtoint ptr %3 to i64
  %6 = ptrtoint ptr %4 to i64
  %7 = sub i64 %5, %6
  %8 = ashr exact i64 %7, 2
  %9 = trunc i64 %8 to i32
  %10 = icmp sgt i32 %9, 0
  br i1 %10, label %.lr.ph, label %._crit_edge

.lr.ph:                                           ; preds = %1
  %11 = getelementptr inbounds nuw i8, ptr %0, i64 24
  %12 = getelementptr inbounds nuw i8, ptr %0, i64 32
  %13 = load ptr, ptr %12, align 8, !tbaa !343
  %14 = load ptr, ptr %11, align 8, !tbaa !344
  %15 = ptrtoint ptr %13 to i64
  %16 = ptrtoint ptr %14 to i64
  %17 = sub i64 %15, %16
  %18 = ashr exact i64 %17, 2
  %wide.trip.count = and i64 %8, 2147483647
  br label %19

._crit_edge:                                      ; preds = %_ZNSt6vectorIfSaIfEE2atEm.exit8, %1
  %.06.lcssa = phi x86_fp80 [ 0xK3FFF8000000000000000, %1 ], [ %28, %_ZNSt6vectorIfSaIfEE2atEm.exit8 ]
  ret x86_fp80 %.06.lcssa

19:                                               ; preds = %.lr.ph, %_ZNSt6vectorIfSaIfEE2atEm.exit8
  %indvars.iv = phi i64 [ 0, %.lr.ph ], [ %indvars.iv.next, %_ZNSt6vectorIfSaIfEE2atEm.exit8 ]
  %.0617 = phi x86_fp80 [ 0xK3FFF8000000000000000, %.lr.ph ], [ %28, %_ZNSt6vectorIfSaIfEE2atEm.exit8 ]
  %exitcond.not = icmp eq i64 %indvars.iv, %18
  br i1 %exitcond.not, label %20, label %_ZNSt6vectorIfSaIfEE2atEm.exit

20:                                               ; preds = %19
  tail call void (ptr, ...) @_ZSt24__throw_out_of_range_fmtPKcz(ptr noundef nonnull @.str.45, i64 noundef %18, i64 noundef %18) #38
  unreachable

_ZNSt6vectorIfSaIfEE2atEm.exit:                   ; preds = %19
  %exitcond23.not = icmp eq i64 %indvars.iv, %8
  br i1 %exitcond23.not, label %21, label %_ZNSt6vectorIfSaIfEE2atEm.exit8

21:                                               ; preds = %_ZNSt6vectorIfSaIfEE2atEm.exit
  tail call void (ptr, ...) @_ZSt24__throw_out_of_range_fmtPKcz(ptr noundef nonnull @.str.45, i64 noundef %8, i64 noundef %8) #38
  unreachable

_ZNSt6vectorIfSaIfEE2atEm.exit8:                  ; preds = %_ZNSt6vectorIfSaIfEE2atEm.exit
  %22 = getelementptr inbounds nuw float, ptr %14, i64 %indvars.iv
  %23 = load float, ptr %22, align 4, !tbaa !252
  %24 = getelementptr inbounds nuw float, ptr %4, i64 %indvars.iv
  %25 = load float, ptr %24, align 4, !tbaa !252
  %26 = fsub float %23, %25
  %27 = fpext float %26 to x86_fp80
  %28 = fmul x86_fp80 %.0617, %27
  %indvars.iv.next = add nuw nsw i64 %indvars.iv, 1
  %exitcond24.not = icmp eq i64 %indvars.iv.next, %wide.trip.count
  br i1 %exitcond24.not, label %._crit_edge, label %19, !llvm.loop !348
}